; ModuleID = '44/1246.c'
source_filename = "44/1246.c"
target datalayout = "e-m:e-p270:32:32-p271:32:32-p272:64:64-i64:64-f80:128-n8:16:32:64-S128"
target triple = "x86_64-pc-linux-gnu"

@.str = private unnamed_addr constant [3 x i8] c"%d\00", align 1
@.str.1 = private unnamed_addr constant [4 x i8] c"%d\0A\00", align 1

; Function Attrs: noinline nounwind uwtable
define dso_local i32 @reverse(i32 %0) #0 {
  %2 = alloca i32, align 4
  %3 = alloca i32, align 4
  %4 = alloca i32, align 4
  %5 = alloca i32, align 4
  %6 = alloca i32, align 4
  %7 = alloca i32, align 4
  %8 = alloca i32, align 4
  %9 = alloca i32, align 4
  store i32 %0, i32* %3, align 4
  store i32 0, i32* %9, align 4
  %10 = load i32, i32* %3, align 4
  %11 = icmp eq i32 %10, 0
  br i1 %11, label %12, label %13

12:                                               ; preds = %1
  store i32 0, i32* %2, align 4
  br label %64

13:                                               ; preds = %1
  %14 = load i32, i32* %3, align 4
  %15 = call i32 @abs(i32 %14) #4
  store i32 %15, i32* %4, align 4
  store i32 9, i32* %5, align 4
  store i32 0, i32* %6, align 4
  store i32 0, i32* %8, align 4
  br label %16

16:                                               ; preds = %53, %13
  %17 = load i32, i32* %5, align 4
  %18 = icmp sge i32 %17, 0
  br i1 %18, label %19, label %56

19:                                               ; preds = %16
  %20 = load i32, i32* %4, align 4
  %21 = load i32, i32* %5, align 4
  %22 = sitofp i32 %21 to double
  %23 = call double @pow(double 1.000000e+01, double %22) #5
  %24 = fptosi double %23 to i32
  %25 = sdiv i32 %20, %24
  store i32 %25, i32* %7, align 4
  %26 = load i32, i32* %7, align 4
  %27 = load i32, i32* %5, align 4
  %28 = sitofp i32 %27 to double
  %29 = call double @pow(double 1.000000e+01, double %28) #5
  %30 = fptosi double %29 to i32
  %31 = mul nsw i32 %26, %30
  %32 = load i32, i32* %4, align 4
  %33 = sub nsw i32 %32, %31
  store i32 %33, i32* %4, align 4
  %34 = load i32, i32* %7, align 4
  %35 = icmp ne i32 %34, 0
  br i1 %35, label %39, label %36

36:                                               ; preds = %19
  %37 = load i32, i32* %6, align 4
  %38 = icmp eq i32 %37, 1
  br i1 %38, label %39, label %52

39:                                               ; preds = %36, %19
  store i32 1, i32* %6, align 4
  %40 = load i32, i32* %7, align 4
  %41 = sitofp i32 %40 to double
  %42 = load i32, i32* %8, align 4
  %43 = sitofp i32 %42 to double
  %44 = call double @pow(double 1.000000e+01, double %43) #5
  %45 = fmul double %41, %44
  %46 = load i32, i32* %9, align 4
  %47 = sitofp i32 %46 to double
  %48 = fadd double %47, %45
  %49 = fptosi double %48 to i32
  store i32 %49, i32* %9, align 4
  %50 = load i32, i32* %8, align 4
  %51 = add nsw i32 %50, 1
  store i32 %51, i32* %8, align 4
  br label %52

52:                                               ; preds = %39, %36
  br label %53

53:                                               ; preds = %52
  %54 = load i32, i32* %5, align 4
  %55 = add nsw i32 %54, -1
  store i32 %55, i32* %5, align 4
  br label %16

56:                                               ; preds = %16
  %57 = load i32, i32* %3, align 4
  %58 = icmp slt i32 %57, 0
  br i1 %58, label %59, label %62

59:                                               ; preds = %56
  %60 = load i32, i32* %9, align 4
  %61 = sub nsw i32 0, %60
  store i32 %61, i32* %9, align 4
  br label %62

62:                                               ; preds = %59, %56
  %63 = load i32, i32* %9, align 4
  store i32 %63, i32* %2, align 4
  br label %64

64:                                               ; preds = %62, %12
  %65 = load i32, i32* %2, align 4
  ret i32 %65
}

; Function Attrs: nounwind readnone
declare dso_local i32 @abs(i32) #1

; Function Attrs: nounwind
declare dso_local double @pow(double, double) #2

; Function Attrs: noinline nounwind uwtable
define dso_local void @main() #0 {
  %1 = alloca i32, align 4
  %2 = alloca i32, align 4
  store i32 1, i32* %2, align 4
  br label %3

3:                                                ; preds = %11, %0
  %4 = load i32, i32* %2, align 4
  %5 = icmp sle i32 %4, 6
  br i1 %5, label %6, label %14

6:                                                ; preds = %3
  %7 = call i32 (i8*, ...) @__isoc99_scanf(i8* getelementptr inbounds ([3 x i8], [3 x i8]* @.str, i64 0, i64 0), i32* %1)
  %8 = load i32, i32* %1, align 4
  %9 = call i32 @reverse(i32 %8)
  %10 = call i32 (i8*, ...) @printf(i8* getelementptr inbounds ([4 x i8], [4 x i8]* @.str.1, i64 0, i64 0), i32 %9)
  br label %11

11:                                               ; preds = %6
  %12 = load i32, i32* %2, align 4
  %13 = add nsw i32 %12, 1
  store i32 %13, i32* %2, align 4
  br label %3

14:                                               ; preds = %3
  ret void
}

declare dso_local i32 @__isoc99_scanf(i8*, ...) #3

declare dso_local i32 @printf(i8*, ...) #3


!llvm.module.flags = !{!0}
!llvm.ident = !{!1}

!0 = !{i32 1, !"wchar_size", i32 4}
!1 = !{!"clang version 10.0.0-4ubuntu1 "}
